target datalayout = "e-m:e-p270:32:32-p271:32:32-p272:64:64-i64:64-i128:128-f80:128-n8:16:32:64-S128"
target triple = "x86_64-pc-linux-gnu"

%struct.sockaddr_in = type { i16, i16, %struct.in_addr, [8 x i8] }
%struct.in_addr = type { i32 }

; Function Attrs: inlinehint nounwind uwtable
define internal zeroext i16 @__bswap_16(i16 noundef zeroext %0) #8 {
  %2 = alloca i16, align 2
  store i16 %0, ptr %2, align 2, !tbaa !30
  %3 = load i16, ptr %2, align 2, !tbaa !30
  %4 = zext i16 %3 to i32
  %5 = ashr i32 %4, 8
  %6 = and i32 %5, 255
  %7 = load i16, ptr %2, align 2, !tbaa !30
  %8 = zext i16 %7 to i32
  %9 = and i32 %8, 255
  %10 = shl i32 %9, 8
  %11 = or i32 %6, %10
  %12 = trunc i32 %11 to i16
  ret i16 %12
}

; Function Attrs: nounwind uwtable
define dso_local i32 @uv_ip4_addr(ptr noundef %0, i32 noundef %1, ptr noundef %2) #0 {
  %4 = alloca ptr, align 8
  %5 = alloca i32, align 4
  %6 = alloca ptr, align 8
  store ptr %0, ptr %4, align 8, !tbaa !4
  store i32 %1, ptr %5, align 4, !tbaa !15
  store ptr %2, ptr %6, align 8, !tbaa !23
  %7 = load ptr, ptr %6, align 8, !tbaa !23
  call void @llvm.memset.p0.i64(ptr align 4 %7, i8 0, i64 16, i1 false)
  %8 = load ptr, ptr %6, align 8, !tbaa !23
  %9 = getelementptr inbounds nuw %struct.sockaddr_in, ptr %8, i32 0, i32 0
  store i16 2, ptr %9, align 4, !tbaa !25
  %10 = load i32, ptr %5, align 4, !tbaa !15
  %11 = trunc i32 %10 to i16
  %12 = call zeroext i16 @__bswap_16(i16 noundef zeroext %11)
  %13 = load ptr, ptr %6, align 8, !tbaa !23
  %14 = getelementptr inbounds nuw %struct.sockaddr_in, ptr %13, i32 0, i32 1
  store i16 %12, ptr %14, align 2, !tbaa !29
  %15 = load ptr, ptr %4, align 8, !tbaa !4
  %16 = load ptr, ptr %6, align 8, !tbaa !23
  %17 = getelementptr inbounds nuw %struct.sockaddr_in, ptr %16, i32 0, i32 2
  %18 = getelementptr inbounds nuw %struct.in_addr, ptr %17, i32 0, i32 0
  %19 = call i32 @uv_inet_pton(i32 noundef 2, ptr noundef %15, ptr noundef %18)
  ret i32 %19
}