; Function Attrs: nounwind uwtable
define dso_local i32 @uv_ip4_addr(ptr noundef %0, i32 noundef %1, ptr noundef initializes((0, 16)) %2) local_unnamed_addr #0 {
  %4 = getelementptr inbounds nuw i8, ptr %2, i64 4
  tail call void @llvm.memset.p0.i64(ptr noundef nonnull align 4 dereferenceable(16) %4, i8 0, i64 12, i1 false)
  store i16 2, ptr %2, align 4, !tbaa !15
  %5 = trunc i32 %1 to i16
  %rev.i = tail call noundef i16 @llvm.bswap.i16(i16 %5)
  %6 = getelementptr inbounds nuw i8, ptr %2, i64 2
  store i16 %rev.i, ptr %6, align 2, !tbaa !19
  %7 = getelementptr inbounds nuw i8, ptr %2, i64 4
  %8 = tail call i32 @uv_inet_pton(i32 noundef 2, ptr noundef %0, ptr noundef nonnull %7) #26
  ret i32 %8
}